target datalayout = "e-m:e-p270:32:32-p271:32:32-p272:64:64-i64:64-i128:128-f80:128-n8:16:32:64-S128"
target triple = "x86_64-pc-linux-gnu"

%struct.VAAPIEncodeProfile = type { i32, i32, i32, i32, i32, i32 }
%struct.AVCodecContext = type { ptr, i32, i32, ptr, i32, i32, ptr, ptr, ptr, i64, i32, i32, ptr, i32, %struct.AVRational, %struct.AVRational, %struct.AVRational, i32, i32, i32, i32, i32, %struct.AVRational, i32, i32, i32, i32, i32, i32, i32, i32, i32, i32, i32, ptr, ptr, i32, float, float, float, float, float, float, float, float, float, i32, i32, i32, i32, i32, i32, i32, i32, i32, i32, i32, i32, ptr, ptr, ptr, i32, i32, i32, i32, i32, i32, i32, i32, i32, i32, %struct.AVChannelLayout, i32, i32, i32, i32, i32, i32, i32, i32, ptr, i32, i32, i32, float, float, i32, i32, i32, i32, i32, ptr, i64, i64, float, float, i32, i32, ptr, ptr, i32, i32, i32, i32, i32, ptr, ptr, ptr, ptr, i32, i32, [8 x i64], i32, i32, i32, i32, i32, i32, i32, ptr, ptr, i32, i32, i32, i32, i32, i32, i32, i32, i32, i32, ptr, ptr, i32, i32, ptr, ptr, ptr, ptr, i32, i32, i64, i32, i32, i64, ptr, i64, ptr, i32, ptr, i32 }
%struct.AVRational = type { i32, i32 }
%struct.AVChannelLayout = type { i32, i32, %union.anon.1, ptr }
%union.anon.1 = type { i64 }
%struct.VAAPIEncodeContext = type { %struct.FFHWBaseEncodeContext, ptr, i32, i32, i32, i32, i32, i32, ptr, ptr, i32, i32, i32, i32, i32, i32, [4 x %struct._VAConfigAttrib], i32, i32, i32, ptr, ptr, [4 x i32], [4 x ptr], [4 x i64], i32, %struct._VAEncMiscParameterRateControl, %struct._VAEncMiscParameterHRD, %struct._VAEncMiscParameterFrameRate, %struct._VAEncMiscParameterBufferMaxFrameSize, %struct._VAEncMiscParameterBufferQualityLevel, ptr, ptr, i32, i32, i32, i32, i32, i32, [20 x i32], [22 x i32], [21 x i32], [23 x i32], i32, i32, ptr, i32, i32 }
%struct.FFHWBaseEncodeContext = type { ptr, ptr, ptr, i32, i32, i32, i32, i32, i32, ptr, ptr, ptr, ptr, ptr, ptr, ptr, ptr, [2 x ptr], i32, i64, i64, i64, i64, i64, i64, i64, [112 x i64], i32, i32, i32, i32, i32, i32, i32, i32, i32, i32, i32, i32, i32, i32, i32, i32, ptr, i32, ptr, i32, ptr }
%struct._VAConfigAttrib = type { i32, i32 }
%struct._VAEncMiscParameterRateControl = type { i32, i32, i32, i32, i32, i32, %union.anon.2, i32, i32, i32, i32, [4 x i32] }
%union.anon.2 = type { %struct.anon }
%struct.anon = type { i32 }
%struct._VAEncMiscParameterHRD = type { i32, i32, [4 x i32] }
%struct._VAEncMiscParameterFrameRate = type { i32, %union.anon.3, [4 x i32] }
%union.anon.3 = type { %struct.anon.4 }
%struct.anon.4 = type { i32 }
%struct._VAEncMiscParameterBufferMaxFrameSize = type { i32, i32, [4 x i32] }
%struct._VAEncMiscParameterBufferQualityLevel = type { i32, [4 x i32] }
%struct.VAAPIEncodeH265Context = type { %struct.VAAPIEncodeContext, i32, i32, i32, i32, i32, i32, i32, i32, i32, i32, i32, %struct.FFHWBaseEncodeH265, %struct.FFHWBaseEncodeH265Opts, %struct.H265RawAUD, %struct.H265RawSlice, %struct.SEIRawMasteringDisplayColourVolume, %struct.SEIRawContentLightLevelInfo, %struct.SEIRawUserDataRegistered, ptr, ptr, %struct.CodedBitstreamFragment, i32, i32 }
%struct.FFHWBaseEncodeH265 = type { %struct.H265RawVPS, %struct.H265RawSPS, %struct.H265RawPPS, i32 }
%struct.H265RawVPS = type { %struct.H265RawNALUnitHeader, i8, i8, i8, i8, i8, i8, %struct.H265RawProfileTierLevel, i8, [7 x i8], [7 x i8], [7 x i32], i8, i16, [1024 x [63 x i8]], i8, i32, i32, i8, i32, i16, [1024 x i16], [1024 x i8], [1024 x %struct.H265RawHRDParameters], i8, %struct.H265RawExtensionData }
%struct.H265RawNALUnitHeader = type { i8, i8, i8 }
%struct.H265RawProfileTierLevel = type { i8, i8, i8, [32 x i8], i8, i8, i8, i8, i8, i8, i8, i8, i8, i8, i8, i8, i8, i8, i8, i8, [7 x i8], [7 x i8], [7 x i8], [7 x i8], [7 x i8], [7 x [32 x i8]], [7 x i8], [7 x i8], [7 x i8], [7 x i8], [7 x i8], [7 x i8], [7 x i8], [7 x i8], [7 x i8], [7 x i8], [7 x i8], [7 x i8], [7 x i8], [7 x i8], [7 x i8], [7 x i8] }
%struct.H265RawHRDParameters = type { i8, i8, i8, i8, i8, i8, i8, i8, i8, i8, i8, i8, i8, [7 x i8], [7 x i8], [7 x i16], [7 x i8], [7 x i8], [7 x %struct.H265RawSubLayerHRDParameters], [7 x %struct.H265RawSubLayerHRDParameters] }
%struct.H265RawSubLayerHRDParameters = type { [32 x i32], [32 x i32], [32 x i32], [32 x i32], [32 x i8] }
%struct.H265RawExtensionData = type { ptr, ptr, i64 }
%struct.H265RawSPS = type { %struct.H265RawNALUnitHeader, i8, i8, i8, i8, %struct.H265RawProfileTierLevel, i8, i8, i8, i8, i8, i16, i16, i8, i16, i16, i16, i16, i8, i8, i8, i8, [7 x i8], [7 x i8], [7 x i32], i8, i8, i8, i8, i8, i8, i8, i8, i8, i8, %struct.H265RawScalingList, i8, i8, i8, i8, i8, i8, i8, i8, i8, [64 x %struct.H265RawSTRefPicSet], i8, i8, [32 x i16], [32 x i8], i8, i8, i8, %struct.H265RawVUI, i8, i8, i8, i8, i8, i8, %struct.H265RawExtensionData, i8, i8, i8, i8, i8, i8, i8, i8, i8, i8, i8, i8, i8, i8, i8, [3 x [128 x i16]], i8, i8, i8 }
%struct.H265RawScalingList = type { [4 x [6 x i8]], [4 x [6 x i8]], [4 x [6 x i16]], [4 x [6 x [64 x i8]]] }
%struct.H265RawSTRefPicSet = type { i8, i8, i8, i16, [16 x i8], [16 x i8], i8, i8, [16 x i16], [16 x i8], [16 x i16], [16 x i8] }
%struct.H265RawVUI = type { i8, i8, i16, i16, i8, i8, i8, i8, i8, i8, i8, i8, i8, i8, i8, i8, i8, i8, i8, i8, i16, i16, i16, i16, i8, i32, i32, i8, i32, i8, %struct.H265RawHRDParameters, i8, i8, i8, i8, i16, i8, i8, i8, i8 }
%struct.H265RawPPS = type { %struct.H265RawNALUnitHeader, i8, i8, i8, i8, i8, i8, i8, i8, i8, i8, i8, i8, i8, i8, i8, i8, i8, i8, i8, i8, i8, i8, i8, i8, i8, [20 x i16], [22 x i16], i8, i8, i8, i8, i8, i8, i8, i8, %struct.H265RawScalingList, i8, i8, i8, i8, i8, i8, i8, i8, i8, %struct.H265RawExtensionData, i8, i8, i8, i8, i8, [6 x i8], [6 x i8], i8, i8, i8, i8, i8, i8, i8, i8, i8, i8, i8, i8, i8, [3 x [128 x i16]], i8, i8, i8, i8, [64 x i8], [64 x i8], [64 x i16], [64 x i16], [64 x i16], [64 x i16], [64 x i8], [64 x i16], [64 x i16], [64 x i16], [64 x i16], [64 x i8], [64 x i8], [64 x i8], [64 x i8], [64 x i8], i8, i8, [62 x i8], i8, i8, i8, i8, i8, i8, i8, i8, i16, i16, [2 x i8], [12 x [2 x [2 x [4 x i8]]]], [12 x [2 x [2 x [4 x [3 x i8]]]]], [12 x [2 x [2 x [4 x [3 x i32]]]]], [12 x [2 x [2 x [4 x [3 x i8]]]]] }
%struct.FFHWBaseEncodeH265Opts = type { i32, i32, i32, i32, i32, i32, i32, i32, [22 x i32], [22 x i32] }
%struct.H265RawAUD = type { %struct.H265RawNALUnitHeader, i8 }
%struct.H265RawSlice = type { %struct.H265RawSliceHeader, ptr, ptr, i64, i32 }
%struct.H265RawSliceHeader = type { %struct.H265RawNALUnitHeader, i8, i8, i8, i8, i16, [8 x i8], i8, i8, i8, i16, i8, %struct.H265RawSTRefPicSet, i8, i8, i8, [16 x i8], [16 x i8], [16 x i8], [16 x i8], [16 x i32], i8, i8, i8, i8, i8, i8, i8, [16 x i8], i8, [16 x i8], i8, i8, i8, i8, i8, i8, [16 x i8], [16 x i8], [16 x i8], [16 x i16], [16 x [2 x i8]], [16 x [2 x i16]], [16 x i8], [16 x i8], [16 x i8], [16 x i16], [16 x [2 x i8]], [16 x [2 x i16]], i8, i8, i8, i8, i8, i8, i8, i8, i8, i8, i8, i8, i8, i8, i16, i8, [2700 x i32], i16, [256 x i8] }
%struct.SEIRawMasteringDisplayColourVolume = type { [3 x i16], [3 x i16], i16, i16, i32, i32 }
%struct.SEIRawContentLightLevelInfo = type { i16, i16 }
%struct.SEIRawUserDataRegistered = type { i8, i8, ptr, i64 }
%struct.CodedBitstreamFragment = type { ptr, i64, i64, ptr, i32, i32, ptr }

@.str.89 = private unnamed_addr constant [57 x i8] c"Using fixed QP = %d / %d / %d for IDR- / P- / B-frames.\0A\00", align 1

; Function Attrs: alwaysinline nounwind willreturn memory(none) uwtable
define internal i32 @av_clip_c(i32 noundef %0, i32 noundef %1, i32 noundef %2) #4 {
  %4 = alloca i32, align 4
  %5 = alloca i32, align 4
  %6 = alloca i32, align 4
  %7 = alloca i32, align 4
  store i32 %0, ptr %5, align 4, !tbaa !92
  store i32 %1, ptr %6, align 4, !tbaa !92
  store i32 %2, ptr %7, align 4, !tbaa !92
  %8 = load i32, ptr %5, align 4, !tbaa !92
  %9 = load i32, ptr %6, align 4, !tbaa !92
  %10 = icmp slt i32 %8, %9
  br i1 %10, label %11, label %13

11:                                               ; preds = %3
  %12 = load i32, ptr %6, align 4, !tbaa !92
  store i32 %12, ptr %4, align 4
  br label %21

13:                                               ; preds = %3
  %14 = load i32, ptr %5, align 4, !tbaa !92
  %15 = load i32, ptr %7, align 4, !tbaa !92
  %16 = icmp sgt i32 %14, %15
  br i1 %16, label %17, label %19

17:                                               ; preds = %13
  %18 = load i32, ptr %7, align 4, !tbaa !92
  store i32 %18, ptr %4, align 4
  br label %21

19:                                               ; preds = %13
  %20 = load i32, ptr %5, align 4, !tbaa !92
  store i32 %20, ptr %4, align 4
  br label %21

21:                                               ; preds = %19, %17, %11
  %22 = load i32, ptr %4, align 4
  ret i32 %22
}

; Function Attrs: cold nounwind optsize uwtable
define internal i32 @vaapi_encode_h265_configure(ptr noundef %0) #0 {
  %2 = alloca i32, align 4
  %3 = alloca ptr, align 8
  %4 = alloca ptr, align 8
  %5 = alloca ptr, align 8
  %6 = alloca i32, align 4
  %7 = alloca i32, align 4
  store ptr %0, ptr %3, align 8, !tbaa !4
  call void @llvm.lifetime.start.p0(i64 8, ptr %4) #10
  %8 = load ptr, ptr %3, align 8, !tbaa !4
  %9 = getelementptr inbounds nuw %struct.AVCodecContext, ptr %8, i32 0, i32 6
  %10 = load ptr, ptr %9, align 8, !tbaa !9
  store ptr %10, ptr %4, align 8, !tbaa !29
  call void @llvm.lifetime.start.p0(i64 8, ptr %5) #10
  %11 = load ptr, ptr %3, align 8, !tbaa !4
  %12 = getelementptr inbounds nuw %struct.AVCodecContext, ptr %11, i32 0, i32 6
  %13 = load ptr, ptr %12, align 8, !tbaa !9
  store ptr %13, ptr %5, align 8, !tbaa !31
  call void @llvm.lifetime.start.p0(i64 4, ptr %6) #10
  %14 = load ptr, ptr %5, align 8, !tbaa !31
  %15 = getelementptr inbounds nuw %struct.VAAPIEncodeH265Context, ptr %14, i32 0, i32 20
  %16 = load ptr, ptr %3, align 8, !tbaa !4
  %17 = call i32 @ff_cbs_init(ptr noundef %15, i32 noundef 173, ptr noundef %16)
  store i32 %17, ptr %6, align 4, !tbaa !92
  %18 = load i32, ptr %6, align 4, !tbaa !92
  %19 = icmp slt i32 %18, 0
  br i1 %19, label %20, label %22

20:                                               ; preds = %1
  %21 = load i32, ptr %6, align 4, !tbaa !92
  store i32 %21, ptr %2, align 4
  store i32 1, ptr %7, align 4
  br label %126

22:                                               ; preds = %1
  %23 = load ptr, ptr %4, align 8, !tbaa !29
  %24 = getelementptr inbounds nuw %struct.VAAPIEncodeContext, ptr %23, i32 0, i32 13
  %25 = load i32, ptr %24, align 4, !tbaa !107
  %26 = icmp eq i32 %25, 16
  br i1 %26, label %27, label %107

27:                                               ; preds = %22
  %28 = load ptr, ptr %4, align 8, !tbaa !29
  %29 = getelementptr inbounds nuw %struct.VAAPIEncodeContext, ptr %28, i32 0, i32 10
  %30 = load i32, ptr %29, align 8, !tbaa !108
  %31 = call i32 @av_clip_c(i32 noundef %30, i32 noundef 1, i32 noundef 51) #11
  %32 = load ptr, ptr %5, align 8, !tbaa !31
  %33 = getelementptr inbounds nuw %struct.VAAPIEncodeH265Context, ptr %32, i32 0, i32 10
  store i32 %31, ptr %33, align 4, !tbaa !109
  %34 = load ptr, ptr %3, align 8, !tbaa !4
  %35 = getelementptr inbounds nuw %struct.AVCodecContext, ptr %34, i32 0, i32 39
  %36 = load float, ptr %35, align 4, !tbaa !110
  %37 = fpext nsz float %36 to double
  %38 = fcmp nsz ogt double %37, 0.000000e+00
  br i1 %38, label %39, label %58

39:                                               ; preds = %27
  %40 = load ptr, ptr %3, align 8, !tbaa !4
  %41 = getelementptr inbounds nuw %struct.AVCodecContext, ptr %40, i32 0, i32 39
  %42 = load float, ptr %41, align 4, !tbaa !110
  %43 = load ptr, ptr %5, align 8, !tbaa !31
  %44 = getelementptr inbounds nuw %struct.VAAPIEncodeH265Context, ptr %43, i32 0, i32 10
  %45 = load i32, ptr %44, align 4, !tbaa !109
  %46 = sitofp i32 %45 to float
  %47 = load ptr, ptr %3, align 8, !tbaa !4
  %48 = getelementptr inbounds nuw %struct.AVCodecContext, ptr %47, i32 0, i32 40
  %49 = load float, ptr %48, align 8, !tbaa !111
  %50 = call nsz float @llvm.fmuladd.f32(float %42, float %46, float %49)
  %51 = fpext nsz float %50 to double
  %52 = fadd nsz double %51, 5.000000e-01
  %53 = fptosi double %52 to i32
  %54 = call i32 @av_clip_c(i32 noundef %53, i32 noundef 1, i32 noundef 51) #11
  %55 = load ptr, ptr %5, align 8, !tbaa !31
  %56 = getelementptr inbounds nuw %struct.VAAPIEncodeH265Context, ptr %55, i32 0, i32 13
  %57 = getelementptr inbounds nuw %struct.FFHWBaseEncodeH265Opts, ptr %56, i32 0, i32 1
  store i32 %54, ptr %57, align 4, !tbaa !112
  br label %65

58:                                               ; preds = %27
  %59 = load ptr, ptr %5, align 8, !tbaa !31
  %60 = getelementptr inbounds nuw %struct.VAAPIEncodeH265Context, ptr %59, i32 0, i32 10
  %61 = load i32, ptr %60, align 4, !tbaa !109
  %62 = load ptr, ptr %5, align 8, !tbaa !31
  %63 = getelementptr inbounds nuw %struct.VAAPIEncodeH265Context, ptr %62, i32 0, i32 13
  %64 = getelementptr inbounds nuw %struct.FFHWBaseEncodeH265Opts, ptr %63, i32 0, i32 1
  store i32 %61, ptr %64, align 4, !tbaa !112
  br label %65

65:                                               ; preds = %58, %39
  %66 = load ptr, ptr %3, align 8, !tbaa !4
  %67 = getelementptr inbounds nuw %struct.AVCodecContext, ptr %66, i32 0, i32 37
  %68 = load float, ptr %67, align 4, !tbaa !113
  %69 = fpext nsz float %68 to double
  %70 = fcmp nsz ogt double %69, 0.000000e+00
  br i1 %70, label %71, label %89

71:                                               ; preds = %65
  %72 = load ptr, ptr %3, align 8, !tbaa !4
  %73 = getelementptr inbounds nuw %struct.AVCodecContext, ptr %72, i32 0, i32 37
  %74 = load float, ptr %73, align 4, !tbaa !113
  %75 = load ptr, ptr %5, align 8, !tbaa !31
  %76 = getelementptr inbounds nuw %struct.VAAPIEncodeH265Context, ptr %75, i32 0, i32 10
  %77 = load i32, ptr %76, align 4, !tbaa !109
  %78 = sitofp i32 %77 to float
  %79 = load ptr, ptr %3, align 8, !tbaa !4
  %80 = getelementptr inbounds nuw %struct.AVCodecContext, ptr %79, i32 0, i32 38
  %81 = load float, ptr %80, align 8, !tbaa !114
  %82 = call nsz float @llvm.fmuladd.f32(float %74, float %78, float %81)
  %83 = fpext nsz float %82 to double
  %84 = fadd nsz double %83, 5.000000e-01
  %85 = fptosi double %84 to i32
  %86 = call i32 @av_clip_c(i32 noundef %85, i32 noundef 1, i32 noundef 51) #11
  %87 = load ptr, ptr %5, align 8, !tbaa !31
  %88 = getelementptr inbounds nuw %struct.VAAPIEncodeH265Context, ptr %87, i32 0, i32 11
  store i32 %86, ptr %88, align 8, !tbaa !115
  br label %95

89:                                               ; preds = %65
  %90 = load ptr, ptr %5, align 8, !tbaa !31
  %91 = getelementptr inbounds nuw %struct.VAAPIEncodeH265Context, ptr %90, i32 0, i32 10
  %92 = load i32, ptr %91, align 4, !tbaa !109
  %93 = load ptr, ptr %5, align 8, !tbaa !31
  %94 = getelementptr inbounds nuw %struct.VAAPIEncodeH265Context, ptr %93, i32 0, i32 11
  store i32 %92, ptr %94, align 8, !tbaa !115
  br label %95

95:                                               ; preds = %89, %71
  %96 = load ptr, ptr %3, align 8, !tbaa !4
  %97 = load ptr, ptr %5, align 8, !tbaa !31
  %98 = getelementptr inbounds nuw %struct.VAAPIEncodeH265Context, ptr %97, i32 0, i32 13
  %99 = getelementptr inbounds nuw %struct.FFHWBaseEncodeH265Opts, ptr %98, i32 0, i32 1
  %100 = load i32, ptr %99, align 4, !tbaa !112
  %101 = load ptr, ptr %5, align 8, !tbaa !31
  %102 = getelementptr inbounds nuw %struct.VAAPIEncodeH265Context, ptr %101, i32 0, i32 10
  %103 = load i32, ptr %102, align 4, !tbaa !109
  %104 = load ptr, ptr %5, align 8, !tbaa !31
  %105 = getelementptr inbounds nuw %struct.VAAPIEncodeH265Context, ptr %104, i32 0, i32 11
  %106 = load i32, ptr %105, align 8, !tbaa !115
  call void (ptr, i32, ptr, ...) @av_log(ptr noundef %96, i32 noundef 48, ptr noundef @.str.89, i32 noundef %100, i32 noundef %103, i32 noundef %106)
  br label %115

107:                                              ; preds = %22
  %108 = load ptr, ptr %5, align 8, !tbaa !31
  %109 = getelementptr inbounds nuw %struct.VAAPIEncodeH265Context, ptr %108, i32 0, i32 13
  %110 = getelementptr inbounds nuw %struct.FFHWBaseEncodeH265Opts, ptr %109, i32 0, i32 1
  store i32 30, ptr %110, align 4, !tbaa !112
  %111 = load ptr, ptr %5, align 8, !tbaa !31
  %112 = getelementptr inbounds nuw %struct.VAAPIEncodeH265Context, ptr %111, i32 0, i32 10
  store i32 30, ptr %112, align 4, !tbaa !109
  %113 = load ptr, ptr %5, align 8, !tbaa !31
  %114 = getelementptr inbounds nuw %struct.VAAPIEncodeH265Context, ptr %113, i32 0, i32 11
  store i32 30, ptr %114, align 8, !tbaa !115
  br label %115

115:                                              ; preds = %107, %95
  %116 = load ptr, ptr %4, align 8, !tbaa !29
  %117 = getelementptr inbounds nuw %struct.VAAPIEncodeContext, ptr %116, i32 0, i32 8
  %118 = load ptr, ptr %117, align 8, !tbaa !116
  %119 = getelementptr inbounds nuw %struct.VAAPIEncodeProfile, ptr %118, i32 0, i32 1
  %120 = load i32, ptr %119, align 4, !tbaa !117
  %121 = sub nsw i32 %120, 8
  %122 = mul nsw i32 6, %121
  %123 = add nsw i32 51, %122
  %124 = load ptr, ptr %4, align 8, !tbaa !29
  %125 = getelementptr inbounds nuw %struct.VAAPIEncodeContext, ptr %124, i32 0, i32 44
  store i32 %123, ptr %125, align 4, !tbaa !119
  store i32 0, ptr %2, align 4
  store i32 1, ptr %7, align 4
  br label %126

126:                                              ; preds = %115, %20
  call void @llvm.lifetime.end.p0(i64 4, ptr %6) #10
  call void @llvm.lifetime.end.p0(i64 8, ptr %5) #10
  call void @llvm.lifetime.end.p0(i64 8, ptr %4) #10
  %127 = load i32, ptr %2, align 4
  ret i32 %127
}