; Function Attrs: cold nounwind optsize uwtable
define internal range(i32 -2147483648, 1) i32 @vaapi_encode_h265_configure(ptr noundef %0) #0 {
  %2 = getelementptr inbounds nuw i8, ptr %0, i64 32
  %3 = load ptr, ptr %2, align 8, !tbaa !4
  %4 = getelementptr inbounds nuw i8, ptr %3, i64 7965744
  %5 = tail call i32 @ff_cbs_init(ptr noundef nonnull %4, i32 noundef 173, ptr noundef %0) #9
  %6 = icmp slt i32 %5, 0
  br i1 %6, label %60, label %7

7:                                                ; preds = %1
  %8 = getelementptr inbounds nuw i8, ptr %3, i64 1252
  %9 = load i32, ptr %8, align 4, !tbaa !97
  %10 = icmp eq i32 %9, 16
  br i1 %10, label %11, label %48

11:                                               ; preds = %7
  %12 = getelementptr inbounds nuw i8, ptr %3, i64 1240
  %13 = load i32, ptr %12, align 8, !tbaa !98
  %14 = tail call i32 @llvm.smax.i32(i32 %13, i32 1)
  %15 = tail call i32 @llvm.umin.i32(i32 %14, i32 51)
  %16 = getelementptr inbounds nuw i8, ptr %3, i64 2012
  store i32 %15, ptr %16, align 4, !tbaa !99
  %17 = getelementptr inbounds nuw i8, ptr %0, i64 212
  %18 = load float, ptr %17, align 4, !tbaa !100
  %19 = fcmp nsz ogt float %18, 0.000000e+00
  br i1 %19, label %20, label %30

20:                                               ; preds = %11
  %21 = uitofp nneg i32 %15 to float
  %22 = getelementptr inbounds nuw i8, ptr %0, i64 216
  %23 = load float, ptr %22, align 8, !tbaa !101
  %24 = tail call nsz float @llvm.fmuladd.f32(float %18, float %21, float %23)
  %25 = fpext nsz float %24 to double
  %26 = fadd nsz double %25, 5.000000e-01
  %27 = fptosi double %26 to i32
  %28 = tail call i32 @llvm.smax.i32(i32 %27, i32 1)
  %29 = tail call i32 @llvm.umin.i32(i32 %28, i32 51)
  br label %30

30:                                               ; preds = %11, %20
  %31 = phi i32 [ %29, %20 ], [ %15, %11 ]
  %32 = getelementptr inbounds nuw i8, ptr %3, i64 7953660
  store i32 %31, ptr %32, align 4, !tbaa !102
  %33 = getelementptr inbounds nuw i8, ptr %0, i64 204
  %34 = load float, ptr %33, align 4, !tbaa !103
  %35 = fcmp nsz ogt float %34, 0.000000e+00
  br i1 %35, label %36, label %46

36:                                               ; preds = %30
  %37 = uitofp nneg i32 %15 to float
  %38 = getelementptr inbounds nuw i8, ptr %0, i64 208
  %39 = load float, ptr %38, align 8, !tbaa !104
  %40 = tail call nsz float @llvm.fmuladd.f32(float %34, float %37, float %39)
  %41 = fpext nsz float %40 to double
  %42 = fadd nsz double %41, 5.000000e-01
  %43 = fptosi double %42 to i32
  %44 = tail call i32 @llvm.smax.i32(i32 %43, i32 1)
  %45 = tail call i32 @llvm.umin.i32(i32 %44, i32 51)
  br label %46

46:                                               ; preds = %30, %36
  %.0.i.sink37 = phi i32 [ %45, %36 ], [ %15, %30 ]
  %47 = getelementptr inbounds nuw i8, ptr %3, i64 2016
  store i32 %.0.i.sink37, ptr %47, align 8, !tbaa !105
  tail call void (ptr, i32, ptr, ...) @av_log(ptr noundef nonnull %0, i32 noundef 48, ptr noundef nonnull @.str.89, i32 noundef %31, i32 noundef %15, i32 noundef %.0.i.sink37) #9
  br label %52

48:                                               ; preds = %7
  %49 = getelementptr inbounds nuw i8, ptr %3, i64 7953660
  store i32 30, ptr %49, align 4, !tbaa !102
  %50 = getelementptr inbounds nuw i8, ptr %3, i64 2012
  store i32 30, ptr %50, align 4, !tbaa !99
  %51 = getelementptr inbounds nuw i8, ptr %3, i64 2016
  store i32 30, ptr %51, align 8, !tbaa !105
  br label %52

52:                                               ; preds = %48, %46
  %53 = getelementptr inbounds nuw i8, ptr %3, i64 1224
  %54 = load ptr, ptr %53, align 8, !tbaa !106
  %55 = getelementptr inbounds nuw i8, ptr %54, i64 4
  %56 = load i32, ptr %55, align 4, !tbaa !107
  %57 = mul i32 %56, 6
  %58 = add i32 %57, 3
  %59 = getelementptr inbounds nuw i8, ptr %3, i64 1956
  store i32 %58, ptr %59, align 4, !tbaa !109
  br label %60

60:                                               ; preds = %1, %52
  %.0 = phi i32 [ 0, %52 ], [ %5, %1 ]
  ret i32 %.0
}